target datalayout = "e-m:e-p270:32:32-p271:32:32-p272:64:64-i64:64-i128:128-f80:128-n8:16:32:64-S128"
target triple = "x86_64-pc-linux-gnu"

%"class.boost::icl::closed_interval" = type { i32, i32 }
%"class.ue2::CodePointSet" = type { %"class.boost::icl::interval_set" }
%"class.boost::icl::interval_set" = type { %"class.boost::icl::interval_base_set" }
%"class.boost::icl::interval_base_set" = type { %"class.std::set" }
%"class.std::set" = type { %"class.std::_Rb_tree" }
%"class.std::_Rb_tree" = type { %"struct.std::_Rb_tree<boost::icl::closed_interval<unsigned int>, boost::icl::closed_interval<unsigned int>, std::_Identity<boost::icl::closed_interval<unsigned int>>, boost::icl::exclusive_less_than<boost::icl::closed_interval<unsigned int>>>::_Rb_tree_impl" }
%"struct.std::_Rb_tree<boost::icl::closed_interval<unsigned int>, boost::icl::closed_interval<unsigned int>, std::_Identity<boost::icl::closed_interval<unsigned int>>, boost::icl::exclusive_less_than<boost::icl::closed_interval<unsigned int>>>::_Rb_tree_impl" = type { [8 x i8], %"struct.std::_Rb_tree_header" }
%"struct.std::_Rb_tree_header" = type { %"struct.std::_Rb_tree_node_base", i64 }
%"struct.std::_Rb_tree_node_base" = type { i32, ptr, ptr, ptr }
%"struct.std::_Rb_tree_const_iterator" = type { ptr }

@_ZN3ue2L19ucp_Warang_Citi_defE = internal constant [4 x i32] [i32 71840, i32 71922, i32 71935, i32 71935], align 16

; Function Attrs: noinline noreturn nounwind uwtable
define linkonce_odr hidden void @__clang_call_terminate(ptr noundef %0) #5 comdat {
  %2 = call ptr @__cxa_begin_catch(ptr %0) #13
  call void @_ZSt9terminatev() #16
  unreachable
}

; Function Attrs: mustprogress nounwind uwtable
define linkonce_odr dso_local void @_ZNSt15_Rb_tree_header8_M_resetEv(ptr noundef nonnull align 8 dereferenceable(40) %0) #3 comdat align 2 {
  %2 = alloca ptr, align 8
  store ptr %0, ptr %2, align 8
  %3 = load ptr, ptr %2, align 8
  %4 = getelementptr inbounds nuw %"struct.std::_Rb_tree_header", ptr %3, i32 0, i32 0
  %5 = getelementptr inbounds nuw %"struct.std::_Rb_tree_node_base", ptr %4, i32 0, i32 1
  store ptr null, ptr %5, align 8
  %6 = getelementptr inbounds nuw %"struct.std::_Rb_tree_header", ptr %3, i32 0, i32 0
  %7 = getelementptr inbounds nuw %"struct.std::_Rb_tree_header", ptr %3, i32 0, i32 0
  %8 = getelementptr inbounds nuw %"struct.std::_Rb_tree_node_base", ptr %7, i32 0, i32 2
  store ptr %6, ptr %8, align 8
  %9 = getelementptr inbounds nuw %"struct.std::_Rb_tree_header", ptr %3, i32 0, i32 0
  %10 = getelementptr inbounds nuw %"struct.std::_Rb_tree_header", ptr %3, i32 0, i32 0
  %11 = getelementptr inbounds nuw %"struct.std::_Rb_tree_node_base", ptr %10, i32 0, i32 3
  store ptr %9, ptr %11, align 8
  %12 = getelementptr inbounds nuw %"struct.std::_Rb_tree_header", ptr %3, i32 0, i32 1
  store i64 0, ptr %12, align 8
  ret void
}

; Function Attrs: mustprogress nounwind uwtable
define linkonce_odr hidden void @_ZNSt15__new_allocatorISt13_Rb_tree_nodeIN5boost3icl15closed_intervalIjSt4lessEEEEC2Ev(ptr noundef nonnull align 1 dereferenceable(1) %0) unnamed_addr #3 comdat align 2 {
  %2 = alloca ptr, align 8
  store ptr %0, ptr %2, align 8
  ret void
}

; Function Attrs: mustprogress nounwind uwtable
define linkonce_odr dso_local void @_ZNSt15_Rb_tree_headerC2Ev(ptr noundef nonnull align 8 dereferenceable(40) %0) unnamed_addr #3 comdat align 2 personality ptr @__gxx_personality_v0 {
  %2 = alloca ptr, align 8
  store ptr %0, ptr %2, align 8
  %3 = load ptr, ptr %2, align 8
  %4 = getelementptr inbounds nuw %"struct.std::_Rb_tree_header", ptr %3, i32 0, i32 0
  %5 = getelementptr inbounds nuw %"struct.std::_Rb_tree_node_base", ptr %4, i32 0, i32 0
  store i32 0, ptr %5, align 8
  invoke void @_ZNSt15_Rb_tree_header8_M_resetEv(ptr noundef nonnull align 8 dereferenceable(40) %3)
          to label %6 unwind label %7

6:                                                ; preds = %1
  ret void

7:                                                ; preds = %1
  %8 = landingpad { ptr, i32 }
          catch ptr null
  %9 = extractvalue { ptr, i32 } %8, 0
  call void @__clang_call_terminate(ptr %9) #16
  unreachable
}

; Function Attrs: mustprogress nounwind uwtable
define linkonce_odr hidden void @_ZNSt20_Rb_tree_key_compareIN5boost3icl19exclusive_less_thanINS1_15closed_intervalIjSt4lessEEEEEC2Ev(ptr noundef nonnull align 1 dereferenceable(1) %0) unnamed_addr #3 comdat align 2 {
  %2 = alloca ptr, align 8
  store ptr %0, ptr %2, align 8
  ret void
}

; Function Attrs: mustprogress nounwind uwtable
define linkonce_odr hidden void @_ZNSaISt13_Rb_tree_nodeIN5boost3icl15closed_intervalIjSt4lessEEEEC2Ev(ptr noundef nonnull align 1 dereferenceable(1) %0) unnamed_addr #3 comdat align 2 {
  %2 = alloca ptr, align 8
  store ptr %0, ptr %2, align 8
  %3 = load ptr, ptr %2, align 8
  call void @_ZNSt15__new_allocatorISt13_Rb_tree_nodeIN5boost3icl15closed_intervalIjSt4lessEEEEC2Ev(ptr noundef nonnull align 1 dereferenceable(1) %3) #13
  ret void
}

; Function Attrs: mustprogress nounwind uwtable
define linkonce_odr hidden void @_ZNSt8_Rb_treeIN5boost3icl15closed_intervalIjSt4lessEES4_St9_IdentityIS4_ENS1_19exclusive_less_thanIS4_EESaIS4_EE13_Rb_tree_implIS8_Lb1EEC2Ev(ptr noundef nonnull align 8 dereferenceable(48) %0) unnamed_addr #3 comdat align 2 {
  %2 = alloca ptr, align 8
  store ptr %0, ptr %2, align 8
  %3 = load ptr, ptr %2, align 8
  call void @_ZNSaISt13_Rb_tree_nodeIN5boost3icl15closed_intervalIjSt4lessEEEEC2Ev(ptr noundef nonnull align 1 dereferenceable(1) %3) #13
  call void @_ZNSt20_Rb_tree_key_compareIN5boost3icl19exclusive_less_thanINS1_15closed_intervalIjSt4lessEEEEEC2Ev(ptr noundef nonnull align 1 dereferenceable(1) %3) #13
  %4 = getelementptr inbounds i8, ptr %3, i64 8
  call void @_ZNSt15_Rb_tree_headerC2Ev(ptr noundef nonnull align 8 dereferenceable(40) %4) #13
  ret void
}

; Function Attrs: mustprogress nounwind uwtable
define linkonce_odr hidden void @_ZNSt8_Rb_treeIN5boost3icl15closed_intervalIjSt4lessEES4_St9_IdentityIS4_ENS1_19exclusive_less_thanIS4_EESaIS4_EEC2Ev(ptr noundef nonnull align 8 dereferenceable(48) %0) unnamed_addr #3 comdat align 2 {
  %2 = alloca ptr, align 8
  store ptr %0, ptr %2, align 8
  %3 = load ptr, ptr %2, align 8
  %4 = getelementptr inbounds nuw %"class.std::_Rb_tree", ptr %3, i32 0, i32 0
  call void @_ZNSt8_Rb_treeIN5boost3icl15closed_intervalIjSt4lessEES4_St9_IdentityIS4_ENS1_19exclusive_less_thanIS4_EESaIS4_EE13_Rb_tree_implIS8_Lb1EEC2Ev(ptr noundef nonnull align 8 dereferenceable(48) %4) #13
  ret void
}

; Function Attrs: mustprogress nounwind uwtable
define linkonce_odr hidden noundef ptr @_ZN5boost3icl17interval_base_setINS0_12interval_setIjSt4lessNS0_15closed_intervalIjS3_EESaEEjS3_S5_SaE4thatEv(ptr noundef nonnull align 8 dereferenceable(48) %0) #3 comdat align 2 {
  %2 = alloca ptr, align 8
  store ptr %0, ptr %2, align 8
  %3 = load ptr, ptr %2, align 8
  ret ptr %3
}

; Function Attrs: mustprogress nounwind uwtable
define linkonce_odr hidden void @_ZNSt3setIN5boost3icl15closed_intervalIjSt4lessEENS1_19exclusive_less_thanIS4_EESaIS4_EEC2Ev(ptr noundef nonnull align 8 dereferenceable(48) %0) unnamed_addr #3 comdat align 2 {
  %2 = alloca ptr, align 8
  store ptr %0, ptr %2, align 8
  %3 = load ptr, ptr %2, align 8
  %4 = getelementptr inbounds nuw %"class.std::set", ptr %3, i32 0, i32 0
  call void @_ZNSt8_Rb_treeIN5boost3icl15closed_intervalIjSt4lessEES4_St9_IdentityIS4_ENS1_19exclusive_less_thanIS4_EESaIS4_EEC2Ev(ptr noundef nonnull align 8 dereferenceable(48) %4) #13
  ret void
}

; Function Attrs: mustprogress uwtable
define linkonce_odr hidden noundef nonnull align 8 dereferenceable(48) ptr @_ZN5boost3icl17interval_base_setINS0_12interval_setIjSt4lessNS0_15closed_intervalIjS3_EESaEEjS3_S5_SaE3addERKS5_(ptr noundef nonnull align 8 dereferenceable(48) %0, ptr noundef nonnull align 4 dereferenceable(8) %1) #0 comdat align 2 {
  %3 = alloca ptr, align 8
  %4 = alloca ptr, align 8
  %5 = alloca %"struct.std::_Rb_tree_const_iterator", align 8
  store ptr %0, ptr %3, align 8
  store ptr %1, ptr %4, align 8
  %6 = load ptr, ptr %3, align 8
  %7 = load ptr, ptr %4, align 8
  %8 = call ptr @_ZN5boost3icl17interval_base_setINS0_12interval_setIjSt4lessNS0_15closed_intervalIjS3_EESaEEjS3_S5_SaE4_addERKS5_(ptr noundef nonnull align 8 dereferenceable(48) %6, ptr noundef nonnull align 4 dereferenceable(8) %7)
  %9 = getelementptr inbounds nuw %"struct.std::_Rb_tree_const_iterator", ptr %5, i32 0, i32 0
  store ptr %8, ptr %9, align 8
  %10 = call noundef ptr @_ZN5boost3icl17interval_base_setINS0_12interval_setIjSt4lessNS0_15closed_intervalIjS3_EESaEEjS3_S5_SaE4thatEv(ptr noundef nonnull align 8 dereferenceable(48) %6)
  ret ptr %10
}

; Function Attrs: mustprogress nounwind uwtable
define linkonce_odr hidden void @_ZN5boost3icl17interval_base_setINS0_12interval_setIjSt4lessNS0_15closed_intervalIjS3_EESaEEjS3_S5_SaEC2Ev(ptr noundef nonnull align 8 dereferenceable(48) %0) unnamed_addr #3 comdat align 2 {
  %2 = alloca ptr, align 8
  store ptr %0, ptr %2, align 8
  %3 = load ptr, ptr %2, align 8
  %4 = getelementptr inbounds nuw %"class.boost::icl::interval_base_set", ptr %3, i32 0, i32 0
  call void @_ZNSt3setIN5boost3icl15closed_intervalIjSt4lessEENS1_19exclusive_less_thanIS4_EESaIS4_EEC2Ev(ptr noundef nonnull align 8 dereferenceable(48) %4) #13
  ret void
}

; Function Attrs: mustprogress uwtable
define linkonce_odr hidden noundef nonnull align 8 dereferenceable(48) ptr @_ZN5boost3icl17interval_base_setINS0_12interval_setIjSt4lessNS0_15closed_intervalIjS3_EESaEEjS3_S5_SaE6insertERKS5_(ptr noundef nonnull align 8 dereferenceable(48) %0, ptr noundef nonnull align 4 dereferenceable(8) %1) #0 comdat align 2 {
  %3 = alloca ptr, align 8
  %4 = alloca ptr, align 8
  store ptr %0, ptr %3, align 8
  store ptr %1, ptr %4, align 8
  %5 = load ptr, ptr %3, align 8
  %6 = load ptr, ptr %4, align 8
  %7 = call noundef nonnull align 8 dereferenceable(48) ptr @_ZN5boost3icl17interval_base_setINS0_12interval_setIjSt4lessNS0_15closed_intervalIjS3_EESaEEjS3_S5_SaE3addERKS5_(ptr noundef nonnull align 8 dereferenceable(48) %5, ptr noundef nonnull align 4 dereferenceable(8) %6)
  ret ptr %7
}

; Function Attrs: mustprogress nounwind uwtable
define linkonce_odr hidden void @_ZN5boost3icl15closed_intervalIjSt4lessEC2ERKjS5_(ptr noundef nonnull align 4 dereferenceable(8) %0, ptr noundef nonnull align 4 dereferenceable(4) %1, ptr noundef nonnull align 4 dereferenceable(4) %2) unnamed_addr #3 comdat align 2 {
  %4 = alloca ptr, align 8
  %5 = alloca ptr, align 8
  %6 = alloca ptr, align 8
  store ptr %0, ptr %4, align 8
  store ptr %1, ptr %5, align 8
  store ptr %2, ptr %6, align 8
  %7 = load ptr, ptr %4, align 8
  %8 = getelementptr inbounds nuw %"class.boost::icl::closed_interval", ptr %7, i32 0, i32 0
  %9 = load ptr, ptr %5, align 8
  %10 = load i32, ptr %9, align 4
  store i32 %10, ptr %8, align 4
  %11 = getelementptr inbounds nuw %"class.boost::icl::closed_interval", ptr %7, i32 0, i32 1
  %12 = load ptr, ptr %6, align 8
  %13 = load i32, ptr %12, align 4
  store i32 %13, ptr %11, align 4
  ret void
}

; Function Attrs: mustprogress uwtable
define linkonce_odr hidden void @_ZN5boost3icl12interval_setIjSt4lessNS0_15closed_intervalIjS2_EESaEC2Ev(ptr noundef nonnull align 8 dereferenceable(48) %0) unnamed_addr #0 comdat align 2 {
  %2 = alloca ptr, align 8
  store ptr %0, ptr %2, align 8
  %3 = load ptr, ptr %2, align 8
  call void @_ZN5boost3icl17interval_base_setINS0_12interval_setIjSt4lessNS0_15closed_intervalIjS3_EESaEEjS3_S5_SaEC2Ev(ptr noundef nonnull align 8 dereferenceable(48) %3)
  ret void
}

; Function Attrs: mustprogress uwtable
define linkonce_odr hidden void @_ZN3ue212CodePointSet8setRangeEjj(ptr noundef nonnull align 8 dereferenceable(48) %0, i32 noundef %1, i32 noundef %2) #0 comdat align 2 {
  %4 = alloca ptr, align 8
  %5 = alloca i32, align 4
  %6 = alloca i32, align 4
  %7 = alloca %"class.boost::icl::closed_interval", align 4
  store ptr %0, ptr %4, align 8
  store i32 %1, ptr %5, align 4
  store i32 %2, ptr %6, align 4
  %8 = load ptr, ptr %4, align 8
  %9 = getelementptr inbounds nuw %"class.ue2::CodePointSet", ptr %8, i32 0, i32 0
  call void @llvm.lifetime.start.p0(i64 8, ptr %7) #13
  call void @_ZN5boost3icl15closed_intervalIjSt4lessEC2ERKjS5_(ptr noundef nonnull align 4 dereferenceable(8) %7, ptr noundef nonnull align 4 dereferenceable(4) %5, ptr noundef nonnull align 4 dereferenceable(4) %6)
  %10 = call noundef nonnull align 8 dereferenceable(48) ptr @_ZN5boost3icl17interval_base_setINS0_12interval_setIjSt4lessNS0_15closed_intervalIjS3_EESaEEjS3_S5_SaE6insertERKS5_(ptr noundef nonnull align 8 dereferenceable(48) %9, ptr noundef nonnull align 4 dereferenceable(8) %7)
  call void @llvm.lifetime.end.p0(i64 8, ptr %7) #13
  ret void
}

; Function Attrs: mustprogress uwtable
define linkonce_odr hidden void @_ZN3ue212CodePointSetC2Ev(ptr noundef nonnull align 8 dereferenceable(48) %0) unnamed_addr #0 comdat align 2 {
  %2 = alloca ptr, align 8
  store ptr %0, ptr %2, align 8
  %3 = load ptr, ptr %2, align 8
  %4 = getelementptr inbounds nuw %"class.ue2::CodePointSet", ptr %3, i32 0, i32 0
  call void @_ZN5boost3icl12interval_setIjSt4lessNS0_15closed_intervalIjS2_EESaEC2Ev(ptr noundef nonnull align 8 dereferenceable(48) %4)
  ret void
}

; Function Attrs: mustprogress uwtable
define hidden void @_ZN3ue217getUcpWarang_CitiEv(ptr dead_on_unwind noalias writable sret(%"class.ue2::CodePointSet") align 8 %0) #0 personality ptr @__gxx_personality_v0 {
  %2 = alloca ptr, align 8
  %3 = alloca i1, align 1
  %4 = alloca i32, align 4
  %5 = alloca ptr, align 8
  %6 = alloca i32, align 4
  store ptr %0, ptr %2, align 8
  store i1 false, ptr %3, align 1
  call void @_ZN3ue212CodePointSetC2Ev(ptr noundef nonnull align 8 dereferenceable(48) %0)
  call void @llvm.lifetime.start.p0(i64 4, ptr %4) #13
  store i32 0, ptr %4, align 4
  br label %7

7:                                                ; preds = %23, %1
  %8 = load i32, ptr %4, align 4
  %9 = zext i32 %8 to i64
  %10 = icmp ult i64 %9, 4
  br i1 %10, label %12, label %11

11:                                               ; preds = %7
  call void @llvm.lifetime.end.p0(i64 4, ptr %4) #13
  br label %30

12:                                               ; preds = %7
  %13 = load i32, ptr %4, align 4
  %14 = zext i32 %13 to i64
  %15 = getelementptr inbounds nuw [4 x i32], ptr @_ZN3ue2L19ucp_Warang_Citi_defE, i64 0, i64 %14
  %16 = load i32, ptr %15, align 4
  %17 = load i32, ptr %4, align 4
  %18 = add i32 %17, 1
  %19 = zext i32 %18 to i64
  %20 = getelementptr inbounds nuw [4 x i32], ptr @_ZN3ue2L19ucp_Warang_Citi_defE, i64 0, i64 %19
  %21 = load i32, ptr %20, align 4
  invoke void @_ZN3ue212CodePointSet8setRangeEjj(ptr noundef nonnull align 8 dereferenceable(48) %0, i32 noundef %16, i32 noundef %21)
          to label %22 unwind label %26

22:                                               ; preds = %12
  br label %23

23:                                               ; preds = %22
  %24 = load i32, ptr %4, align 4
  %25 = add i32 %24, 2
  store i32 %25, ptr %4, align 4
  br label %7, !llvm.loop !171

26:                                               ; preds = %12
  %27 = landingpad { ptr, i32 }
          cleanup
  %28 = extractvalue { ptr, i32 } %27, 0
  store ptr %28, ptr %5, align 8
  %29 = extractvalue { ptr, i32 } %27, 1
  store i32 %29, ptr %6, align 4
  call void @llvm.lifetime.end.p0(i64 4, ptr %4) #13
  call void @_ZN3ue212CodePointSetD2Ev(ptr noundef nonnull align 8 dereferenceable(48) %0) #13
  br label %34

30:                                               ; preds = %11
  store i1 true, ptr %3, align 1
  %31 = load i1, ptr %3, align 1
  br i1 %31, label %33, label %32

32:                                               ; preds = %30
  call void @_ZN3ue212CodePointSetD2Ev(ptr noundef nonnull align 8 dereferenceable(48) %0) #13
  br label %33

33:                                               ; preds = %32, %30
  ret void

34:                                               ; preds = %26
  %35 = load ptr, ptr %5, align 8
  %36 = load i32, ptr %6, align 4
  %37 = insertvalue { ptr, i32 } poison, ptr %35, 0
  %38 = insertvalue { ptr, i32 } %37, i32 %36, 1
  resume { ptr, i32 } %38
}